; Function Attrs: nounwind uwtable
define range(i32 -50, 1) i32 @pmix20_bfrop_unpack_rank(ptr noundef readnone captures(none) %0, ptr noundef %1, ptr noundef writeonly captures(none) %2, ptr noundef readonly captures(none) %3, i16 noundef zeroext %4) local_unnamed_addr #0 {
  %6 = load i32, ptr getelementptr inbounds nuw (i8, ptr @pmix_bfrops_base_framework, i64 76), align 4, !tbaa !7
  %or.cond.i = icmp ult i32 %6, 64
  br i1 %or.cond.i, label %7, label %14

7:                                                ; preds = %5
  %8 = zext nneg i32 %6 to i64
  %9 = getelementptr inbounds nuw [0 x %struct.pmix_output_desc_t], ptr @pmix_output_info, i64 0, i64 %8, i32 2
  %10 = load i32, ptr %9, align 4, !tbaa !19
  %11 = icmp sgt i32 %10, 19
  br i1 %11, label %12, label %14

12:                                               ; preds = %7
  %13 = load i32, ptr %3, align 4, !tbaa !3
  tail call void (i32, ptr, ...) @pmix_output(i32 noundef %6, ptr noundef nonnull @.str.7, i32 noundef %13) #10
  br label %14

14:                                               ; preds = %12, %7, %5
  %15 = load i32, ptr %3, align 4, !tbaa !3
  %16 = sext i32 %15 to i64
  %17 = shl nsw i64 %16, 2
  %18 = tail call zeroext i1 @pmix_bfrop_too_small(ptr noundef %1, i64 noundef %17) #10
  br i1 %18, label %pmix20_bfrop_unpack_int32.exit, label %.preheader.i

.preheader.i:                                     ; preds = %14
  %19 = load i32, ptr %3, align 4, !tbaa !3
  %20 = icmp sgt i32 %19, 0
  br i1 %20, label %.lr.ph.i, label %pmix20_bfrop_unpack_int32.exit

.lr.ph.i:                                         ; preds = %.preheader.i
  %21 = getelementptr inbounds nuw i8, ptr %1, i64 144
  %.pre.i = load ptr, ptr %21, align 8, !tbaa !34
  br label %22

22:                                               ; preds = %22, %.lr.ph.i
  %23 = phi ptr [ %.pre.i, %.lr.ph.i ], [ %27, %22 ]
  %indvars.iv.i = phi i64 [ 0, %.lr.ph.i ], [ %indvars.iv.next.i, %22 ]
  %.0.copyload.i = load i32, ptr %23, align 1
  %24 = tail call noundef i32 @llvm.bswap.i32(i32 %.0.copyload.i)
  %25 = getelementptr inbounds nuw i32, ptr %2, i64 %indvars.iv.i
  store i32 %24, ptr %25, align 4
  %26 = load ptr, ptr %21, align 8, !tbaa !34
  %27 = getelementptr inbounds nuw i8, ptr %26, i64 4
  store ptr %27, ptr %21, align 8, !tbaa !34
  %indvars.iv.next.i = add nuw nsw i64 %indvars.iv.i, 1
  %28 = load i32, ptr %3, align 4, !tbaa !3
  %29 = sext i32 %28 to i64
  %30 = icmp slt i64 %indvars.iv.next.i, %29
  br i1 %30, label %22, label %pmix20_bfrop_unpack_int32.exit, !llvm.loop !61

pmix20_bfrop_unpack_int32.exit:                   ; preds = %22, %14, %.preheader.i
  %.0.i = phi i32 [ -50, %14 ], [ 0, %.preheader.i ], [ 0, %22 ]
  ret i32 %.0.i
}